target datalayout = "e-m:e-p270:32:32-p271:32:32-p272:64:64-i64:64-i128:128-f80:128-n8:16:32:64-S128"
target triple = "x86_64-pc-linux-gnu"

%"class.clang::QualType" = type { %"class.llvm::PointerIntPair.4" }
%"class.llvm::PointerIntPair.4" = type { %"struct.llvm::detail::PunnedPointer.5" }
%"struct.llvm::detail::PunnedPointer.5" = type { [8 x i8] }
%"class.std::__cxx11::basic_string" = type { %"struct.std::__cxx11::basic_string<char>::_Alloc_hider", i64, %union.anon.144 }
%"struct.std::__cxx11::basic_string<char>::_Alloc_hider" = type { ptr }
%union.anon.144 = type { i64, [8 x i8] }
%"class.llvm::StringRef" = type { ptr, i64 }
%"class.llvm::SmallVectorBase" = type { ptr, i32, i32 }
%"class.llvm::SmallVectorImpl.242" = type { %"class.llvm::SmallVectorTemplateBase.243" }
%"class.llvm::SmallVectorTemplateBase.243" = type { %"class.llvm::SmallVectorTemplateCommon.244" }
%"class.llvm::SmallVectorTemplateCommon.244" = type { %"class.llvm::SmallVectorBase" }
%"class.(anonymous namespace)::StreamChecker" = type { %"class.clang::ento::Checker", %"class.clang::ento::BugType", %"class.clang::ento::BugType", %"class.clang::ento::BugType", %"class.clang::ento::BugType", %"class.clang::ento::BugType", %"class.clang::ento::BugType", %"class.clang::ento::BugType", i8, i8, [6 x i8], %"class.clang::ento::CallDescription", %"class.clang::ento::CallDescriptionMap", %"class.clang::ento::CallDescriptionMap", %"class.std::optional.891", i32, i32, i32, [4 x i8], %"class.clang::QualType", ptr, ptr, ptr }
%"class.clang::ento::Checker" = type { %"class.clang::ento::CheckerBase" }
%"class.clang::ento::CheckerBase" = type { %"class.clang::ProgramPointTag", %"class.clang::ento::CheckerNameRef" }
%"class.clang::ProgramPointTag" = type { ptr, ptr }
%"class.clang::ento::CheckerNameRef" = type { %"class.llvm::StringRef" }
%"class.clang::ento::BugType" = type <{ ptr, %"class.clang::ento::CheckerNameRef", %"class.std::__cxx11::basic_string", %"class.std::__cxx11::basic_string", ptr, i8, [7 x i8] }>
%"class.clang::ento::CallDescription" = type <{ %"class.std::optional.870", %"class.std::vector.722", %"class.std::optional.878", %"class.std::optional.878", i32, [4 x i8] }>
%"class.std::optional.870" = type { %"struct.std::_Optional_base.871" }
%"struct.std::_Optional_base.871" = type { %"struct.std::_Optional_payload.873" }
%"struct.std::_Optional_payload.873" = type { %"struct.std::_Optional_payload_base.base.875", [7 x i8] }
%"struct.std::_Optional_payload_base.base.875" = type <{ %"union.std::_Optional_payload_base<const clang::IdentifierInfo *>::_Storage", i8 }>
%"union.std::_Optional_payload_base<const clang::IdentifierInfo *>::_Storage" = type { ptr }
%"class.std::vector.722" = type { %"struct.std::_Vector_base.723" }
%"struct.std::_Vector_base.723" = type { %"struct.std::_Vector_base<std::__cxx11::basic_string<char>, std::allocator<std::__cxx11::basic_string<char>>>::_Vector_impl" }
%"struct.std::_Vector_base<std::__cxx11::basic_string<char>, std::allocator<std::__cxx11::basic_string<char>>>::_Vector_impl" = type { %"struct.std::_Vector_base<std::__cxx11::basic_string<char>, std::allocator<std::__cxx11::basic_string<char>>>::_Vector_impl_data" }
%"struct.std::_Vector_base<std::__cxx11::basic_string<char>, std::allocator<std::__cxx11::basic_string<char>>>::_Vector_impl_data" = type { ptr, ptr, ptr }
%"class.std::optional.878" = type { %"struct.std::_Optional_base.879" }
%"struct.std::_Optional_base.879" = type { %"struct.std::_Optional_payload.881" }
%"struct.std::_Optional_payload.881" = type { %"struct.std::_Optional_payload_base.base.883", [3 x i8] }
%"struct.std::_Optional_payload_base.base.883" = type <{ %"union.std::_Optional_payload_base<unsigned int>::_Storage", i8 }>
%"union.std::_Optional_payload_base<unsigned int>::_Storage" = type { i32 }
%"class.clang::ento::CallDescriptionMap" = type { %"class.std::vector.886" }
%"class.std::vector.886" = type { %"struct.std::_Vector_base.887" }
%"struct.std::_Vector_base.887" = type { %"struct.std::_Vector_base<std::pair<clang::ento::CallDescription, (anonymous namespace)::FnDescription>, std::allocator<std::pair<clang::ento::CallDescription, (anonymous namespace)::FnDescription>>>::_Vector_impl" }
%"struct.std::_Vector_base<std::pair<clang::ento::CallDescription, (anonymous namespace)::FnDescription>, std::allocator<std::pair<clang::ento::CallDescription, (anonymous namespace)::FnDescription>>>::_Vector_impl" = type { %"struct.std::_Vector_base<std::pair<clang::ento::CallDescription, (anonymous namespace)::FnDescription>, std::allocator<std::pair<clang::ento::CallDescription, (anonymous namespace)::FnDescription>>>::_Vector_impl_data" }
%"struct.std::_Vector_base<std::pair<clang::ento::CallDescription, (anonymous namespace)::FnDescription>, std::allocator<std::pair<clang::ento::CallDescription, (anonymous namespace)::FnDescription>>>::_Vector_impl_data" = type { ptr, ptr, ptr }
%"class.std::optional.891" = type { %"struct.std::_Optional_base.892" }
%"struct.std::_Optional_base.892" = type { %"struct.std::_Optional_payload.894" }
%"struct.std::_Optional_payload.894" = type { %"struct.std::_Optional_payload_base.base.896", [3 x i8] }
%"struct.std::_Optional_payload_base.base.896" = type <{ %"union.std::_Optional_payload_base<int>::_Storage", i8 }>
%"union.std::_Optional_payload_base<int>::_Storage" = type { i32 }
%"class.std::allocator.141" = type { i8 }
%"class.clang::ento::BugReport" = type { ptr, i32, ptr, %"class.std::__cxx11::basic_string", %"class.std::__cxx11::basic_string", %"class.llvm::SmallVector.1323", %"class.llvm::SmallVector.1328", %"class.llvm::SmallVector.1333" }
%"class.llvm::SmallVector.1323" = type { %"class.llvm::SmallVectorImpl.1324", %"struct.llvm::SmallVectorStorage.1327" }
%"class.llvm::SmallVectorImpl.1324" = type { %"class.llvm::SmallVectorTemplateBase.1325" }
%"class.llvm::SmallVectorTemplateBase.1325" = type { %"class.llvm::SmallVectorTemplateCommon.1326" }
%"class.llvm::SmallVectorTemplateCommon.1326" = type { %"class.llvm::SmallVectorBase" }
%"struct.llvm::SmallVectorStorage.1327" = type { [32 x i8] }
%"class.llvm::SmallVector.1328" = type { %"class.llvm::SmallVectorImpl.1329", %"struct.llvm::SmallVectorStorage.1332" }
%"class.llvm::SmallVectorImpl.1329" = type { %"class.llvm::SmallVectorTemplateBase.1330" }
%"class.llvm::SmallVectorTemplateBase.1330" = type { %"class.llvm::SmallVectorTemplateCommon.1331" }
%"class.llvm::SmallVectorTemplateCommon.1331" = type { %"class.llvm::SmallVectorBase" }
%"struct.llvm::SmallVectorStorage.1332" = type { [64 x i8] }
%"class.llvm::SmallVector.1333" = type { %"class.llvm::SmallVectorImpl.242", %"struct.llvm::SmallVectorStorage.1334" }
%"struct.llvm::SmallVectorStorage.1334" = type { [256 x i8] }
%class.anon.1494 = type { ptr, ptr }

@.str.5 = private unnamed_addr constant [1 x i8] zeroinitializer, align 1
@.str.54 = private unnamed_addr constant [50 x i8] c"basic_string: construction from null is not valid\00", align 1
@_ZN12_GLOBAL__N_18FeofNoteE = internal global ptr @.str.61, align 8

; Function Attrs: mustprogress nounwind uwtable
define internal noundef ptr @_ZNK12_GLOBAL__N_113StreamChecker15getBT_StreamEofEv(ptr noundef nonnull align 8 dereferenceable(936) %0) #0 align 2 {
  %2 = alloca ptr, align 8
  store ptr %0, ptr %2, align 8
  %3 = load ptr, ptr %2, align 8
  %4 = getelementptr inbounds nuw %"class.(anonymous namespace)::StreamChecker", ptr %3, i32 0, i32 6
  ret ptr %4
}

; Function Attrs: mustprogress nounwind uwtable
define linkonce_odr hidden noundef nonnull align 8 dereferenceable(97) ptr @_ZNK5clang4ento9BugReport10getBugTypeEv(ptr noundef nonnull align 8 dereferenceable(488) %0) #0 comdat align 2 {
  %2 = alloca ptr, align 8
  store ptr %0, ptr %2, align 8
  %3 = load ptr, ptr %2, align 8
  %4 = getelementptr inbounds nuw %"class.clang::ento::BugReport", ptr %3, i32 0, i32 2
  %5 = load ptr, ptr %4, align 8
  ret ptr %5
}

; Function Attrs: mustprogress nounwind uwtable
define linkonce_odr hidden noundef i64 @_ZNSt11char_traitsIcE6lengthEPKc(ptr noundef %0) #0 comdat align 2 {
  %2 = alloca ptr, align 8
  store ptr %0, ptr %2, align 8
  %3 = load ptr, ptr %2, align 8
  %4 = call i64 @strlen(ptr noundef %3) #18
  ret i64 %4
}

; Function Attrs: mustprogress nounwind uwtable
define internal noundef ptr @_ZZNK12_GLOBAL__N_113StreamChecker22constructSetEofNoteTagERN5clang4ento14CheckerContextEPKNS2_7SymExprEENKUlRNS2_22PathSensitiveBugReportEE_clES9_(ptr noundef nonnull align 8 dereferenceable(16) %0, ptr noundef nonnull align 8 dereferenceable(1016) %1) #0 align 2 {
  %3 = alloca ptr, align 8
  %4 = alloca ptr, align 8
  %5 = alloca ptr, align 8
  store ptr %0, ptr %4, align 8
  store ptr %1, ptr %5, align 8
  %6 = load ptr, ptr %4, align 8
  %7 = getelementptr inbounds nuw %class.anon.1494, ptr %6, i32 0, i32 0
  %8 = load ptr, ptr %7, align 8
  %9 = load ptr, ptr %5, align 8
  %10 = getelementptr inbounds nuw %class.anon.1494, ptr %6, i32 0, i32 1
  %11 = load ptr, ptr %10, align 8
  %12 = call noundef zeroext i1 @_ZNK5clang4ento22PathSensitiveBugReport13isInterestingEPKNS0_7SymExprE(ptr noundef nonnull align 8 dereferenceable(1016) %9, ptr noundef %11)
  br i1 %12, label %13, label %18

13:                                               ; preds = %2
  %14 = load ptr, ptr %5, align 8
  %15 = call noundef nonnull align 8 dereferenceable(97) ptr @_ZNK5clang4ento9BugReport10getBugTypeEv(ptr noundef nonnull align 8 dereferenceable(488) %14)
  %16 = call noundef ptr @_ZNK12_GLOBAL__N_113StreamChecker15getBT_StreamEofEv(ptr noundef nonnull align 8 dereferenceable(936) %8)
  %17 = icmp ne ptr %15, %16
  br i1 %17, label %18, label %19

18:                                               ; preds = %13, %2
  store ptr @.str.5, ptr %3, align 8
  br label %24

19:                                               ; preds = %13
  %20 = load ptr, ptr %5, align 8
  %21 = getelementptr inbounds nuw %class.anon.1494, ptr %6, i32 0, i32 1
  %22 = load ptr, ptr %21, align 8
  call void @_ZN5clang4ento22PathSensitiveBugReport18markNotInterestingEPKNS0_7SymExprE(ptr noundef nonnull align 8 dereferenceable(1016) %20, ptr noundef %22)
  %23 = load ptr, ptr @_ZN12_GLOBAL__N_18FeofNoteE, align 8
  store ptr %23, ptr %3, align 8
  br label %24

24:                                               ; preds = %19, %18
  %25 = load ptr, ptr %3, align 8
  ret ptr %25
}

; Function Attrs: mustprogress nounwind uwtable
define linkonce_odr hidden noundef ptr @_ZNKSt9_Any_data9_M_accessEv(ptr noundef nonnull align 8 dereferenceable(16) %0) #0 comdat align 2 {
  %2 = alloca ptr, align 8
  store ptr %0, ptr %2, align 8
  %3 = load ptr, ptr %2, align 8
  %4 = getelementptr inbounds [16 x i8], ptr %3, i64 0, i64 0
  ret ptr %4
}

; Function Attrs: mustprogress nounwind uwtable
define linkonce_odr hidden void @_ZNSt7__cxx1112basic_stringIcSt11char_traitsIcESaIcEEC2IS3_EEPKcRKS3_(ptr noundef nonnull align 8 dereferenceable(32) %0, ptr noundef %1, ptr noundef nonnull align 1 dereferenceable(1) %2) unnamed_addr #0 comdat align 2 {
  %4 = alloca ptr, align 8
  %5 = alloca ptr, align 8
  %6 = alloca ptr, align 8
  %7 = alloca ptr, align 8
  store ptr %0, ptr %4, align 8
  store ptr %1, ptr %5, align 8
  store ptr %2, ptr %6, align 8
  %8 = load ptr, ptr %4, align 8
  %9 = getelementptr inbounds nuw %"class.std::__cxx11::basic_string", ptr %8, i32 0, i32 0
  %10 = call noundef ptr @_ZNSt7__cxx1112basic_stringIcSt11char_traitsIcESaIcEE13_M_local_dataEv(ptr noundef nonnull align 8 dereferenceable(32) %8)
  %11 = load ptr, ptr %6, align 8
  call void @_ZNSt7__cxx1112basic_stringIcSt11char_traitsIcESaIcEE12_Alloc_hiderC1EPcRKS3_(ptr noundef nonnull align 8 dereferenceable(8) %9, ptr noundef %10, ptr noundef nonnull align 1 dereferenceable(1) %11)
  %12 = load ptr, ptr %5, align 8
  %13 = icmp eq ptr %12, null
  br i1 %13, label %14, label %15

14:                                               ; preds = %3
  call void @_ZSt19__throw_logic_errorPKc(ptr noundef @.str.54) #21
  unreachable

15:                                               ; preds = %3
  %16 = load ptr, ptr %5, align 8
  %17 = load ptr, ptr %5, align 8
  %18 = call noundef i64 @_ZNSt11char_traitsIcE6lengthEPKc(ptr noundef %17)
  %19 = getelementptr inbounds i8, ptr %16, i64 %18
  store ptr %19, ptr %7, align 8
  %20 = load ptr, ptr %5, align 8
  %21 = load ptr, ptr %7, align 8
  call void @_ZNSt7__cxx1112basic_stringIcSt11char_traitsIcESaIcEE12_M_constructIPKcEEvT_S8_St20forward_iterator_tag(ptr noundef nonnull align 8 dereferenceable(32) %8, ptr noundef %20, ptr noundef %21)
  ret void
}

; Function Attrs: mustprogress nounwind uwtable
define internal noundef ptr @_ZSt13__invoke_implIPKcRZNK12_GLOBAL__N_113StreamChecker22constructSetEofNoteTagERN5clang4ento14CheckerContextEPKNS5_7SymExprEEUlRNS5_22PathSensitiveBugReportEE_JSC_EET_St14__invoke_otherOT0_DpOT1_(ptr noundef nonnull align 8 dereferenceable(16) %0, ptr noundef nonnull align 8 dereferenceable(1016) %1) #0 {
  %3 = alloca ptr, align 8
  %4 = alloca ptr, align 8
  store ptr %0, ptr %3, align 8
  store ptr %1, ptr %4, align 8
  %5 = load ptr, ptr %3, align 8
  %6 = load ptr, ptr %4, align 8
  %7 = call noundef ptr @_ZZNK12_GLOBAL__N_113StreamChecker22constructSetEofNoteTagERN5clang4ento14CheckerContextEPKNS2_7SymExprEENKUlRNS2_22PathSensitiveBugReportEE_clES9_(ptr noundef nonnull align 8 dereferenceable(16) %5, ptr noundef nonnull align 8 dereferenceable(1016) %6)
  ret ptr %7
}

; Function Attrs: mustprogress nounwind uwtable
define internal noundef nonnull align 8 dereferenceable(16) ptr @_ZNKSt9_Any_data9_M_accessIZNK12_GLOBAL__N_113StreamChecker22constructSetEofNoteTagERN5clang4ento14CheckerContextEPKNS4_7SymExprEEUlRNS4_22PathSensitiveBugReportEE_EERKT_v(ptr noundef nonnull align 8 dereferenceable(16) %0) #0 align 2 {
  %2 = alloca ptr, align 8
  store ptr %0, ptr %2, align 8
  %3 = load ptr, ptr %2, align 8
  %4 = call noundef ptr @_ZNKSt9_Any_data9_M_accessEv(ptr noundef nonnull align 8 dereferenceable(16) %3) #18
  ret ptr %4
}

; Function Attrs: mustprogress nounwind uwtable
define internal void @_ZSt10__invoke_rINSt7__cxx1112basic_stringIcSt11char_traitsIcESaIcEEERZNK12_GLOBAL__N_113StreamChecker22constructSetEofNoteTagERN5clang4ento14CheckerContextEPKNS9_7SymExprEEUlRNS9_22PathSensitiveBugReportEE_JSG_EENSt9enable_ifIX16is_invocable_r_vIT_T0_DpT1_EESK_E4typeEOSL_DpOSM_(ptr dead_on_unwind noalias writable sret(%"class.std::__cxx11::basic_string") align 8 %0, ptr noundef nonnull align 8 dereferenceable(16) %1, ptr noundef nonnull align 8 dereferenceable(1016) %2) #0 {
  %4 = alloca ptr, align 8
  %5 = alloca ptr, align 8
  %6 = alloca ptr, align 8
  %7 = alloca %"class.std::allocator.141", align 1
  store ptr %0, ptr %4, align 8
  store ptr %1, ptr %5, align 8
  store ptr %2, ptr %6, align 8
  %8 = load ptr, ptr %5, align 8
  %9 = load ptr, ptr %6, align 8
  %10 = call noundef ptr @_ZSt13__invoke_implIPKcRZNK12_GLOBAL__N_113StreamChecker22constructSetEofNoteTagERN5clang4ento14CheckerContextEPKNS5_7SymExprEEUlRNS5_22PathSensitiveBugReportEE_JSC_EET_St14__invoke_otherOT0_DpOT1_(ptr noundef nonnull align 8 dereferenceable(16) %8, ptr noundef nonnull align 8 dereferenceable(1016) %9)
  call void @_ZNSaIcEC1Ev(ptr noundef nonnull align 1 dereferenceable(1) %7) #18
  call void @_ZNSt7__cxx1112basic_stringIcSt11char_traitsIcESaIcEEC2IS3_EEPKcRKS3_(ptr noundef nonnull align 8 dereferenceable(32) %0, ptr noundef %10, ptr noundef nonnull align 1 dereferenceable(1) %7)
  call void @_ZNSaIcED1Ev(ptr noundef nonnull align 1 dereferenceable(1) %7) #18
  ret void
}

; Function Attrs: mustprogress nounwind uwtable
define internal noundef ptr @_ZNSt14_Function_base13_Base_managerIZNK12_GLOBAL__N_113StreamChecker22constructSetEofNoteTagERN5clang4ento14CheckerContextEPKNS4_7SymExprEEUlRNS4_22PathSensitiveBugReportEE_E14_M_get_pointerERKSt9_Any_data(ptr noundef nonnull align 8 dereferenceable(16) %0) #0 align 2 {
  %2 = alloca ptr, align 8
  %3 = alloca ptr, align 8
  store ptr %0, ptr %2, align 8
  %4 = load ptr, ptr %2, align 8
  %5 = call noundef nonnull align 8 dereferenceable(16) ptr @_ZNKSt9_Any_data9_M_accessIZNK12_GLOBAL__N_113StreamChecker22constructSetEofNoteTagERN5clang4ento14CheckerContextEPKNS4_7SymExprEEUlRNS4_22PathSensitiveBugReportEE_EERKT_v(ptr noundef nonnull align 8 dereferenceable(16) %4) #18
  store ptr %5, ptr %3, align 8
  %6 = load ptr, ptr %3, align 8
  ret ptr %6
}

; Function Attrs: mustprogress nounwind uwtable
define internal void @_ZNSt17_Function_handlerIFNSt7__cxx1112basic_stringIcSt11char_traitsIcESaIcEEERN5clang4ento22PathSensitiveBugReportEEZNK12_GLOBAL__N_113StreamChecker22constructSetEofNoteTagERNS7_14CheckerContextEPKNS7_7SymExprEEUlS9_E_E9_M_invokeERKSt9_Any_dataS9_(ptr dead_on_unwind noalias writable sret(%"class.std::__cxx11::basic_string") align 8 %0, ptr noundef nonnull align 8 dereferenceable(16) %1, ptr noundef nonnull align 8 dereferenceable(1016) %2) #0 align 2 {
  %4 = alloca ptr, align 8
  %5 = alloca ptr, align 8
  %6 = alloca ptr, align 8
  store ptr %0, ptr %4, align 8
  store ptr %1, ptr %5, align 8
  store ptr %2, ptr %6, align 8
  %7 = load ptr, ptr %5, align 8
  %8 = call noundef ptr @_ZNSt14_Function_base13_Base_managerIZNK12_GLOBAL__N_113StreamChecker22constructSetEofNoteTagERN5clang4ento14CheckerContextEPKNS4_7SymExprEEUlRNS4_22PathSensitiveBugReportEE_E14_M_get_pointerERKSt9_Any_data(ptr noundef nonnull align 8 dereferenceable(16) %7) #18
  %9 = load ptr, ptr %6, align 8
  call void @_ZSt10__invoke_rINSt7__cxx1112basic_stringIcSt11char_traitsIcESaIcEEERZNK12_GLOBAL__N_113StreamChecker22constructSetEofNoteTagERN5clang4ento14CheckerContextEPKNS9_7SymExprEEUlRNS9_22PathSensitiveBugReportEE_JSG_EENSt9enable_ifIX16is_invocable_r_vIT_T0_DpT1_EESK_E4typeEOSL_DpOSM_(ptr dead_on_unwind writable sret(%"class.std::__cxx11::basic_string") align 8 %0, ptr noundef nonnull align 8 dereferenceable(16) %8, ptr noundef nonnull align 8 dereferenceable(1016) %9)
  ret void
}