; Function Attrs: mustprogress nounwind uwtable
define internal void @_ZNSt17_Function_handlerIFNSt7__cxx1112basic_stringIcSt11char_traitsIcESaIcEEERN5clang4ento22PathSensitiveBugReportEEZNK12_GLOBAL__N_113StreamChecker22constructSetEofNoteTagERNS7_14CheckerContextEPKNS7_7SymExprEEUlS9_E_E9_M_invokeERKSt9_Any_dataS9_(ptr dead_on_unwind noalias writable sret(%"class.std::__cxx11::basic_string") align 8 %0, ptr noundef nonnull readonly align 8 captures(none) dereferenceable(16) %1, ptr noundef nonnull align 8 dereferenceable(1016) %2) #2 align 2 {
  %4 = alloca %"class.std::allocator.141", align 1
  call void @llvm.lifetime.start.p0(i64 1, ptr nonnull %4)
  %5 = load ptr, ptr %1, align 8, !noalias !290
  %6 = getelementptr inbounds nuw i8, ptr %1, i64 8
  %7 = load ptr, ptr %6, align 8, !noalias !290
  %8 = tail call noundef zeroext i1 @_ZNK5clang4ento22PathSensitiveBugReport13isInterestingEPKNS0_7SymExprE(ptr noundef nonnull align 8 dereferenceable(1016) %2, ptr noundef %7) #21, !noalias !290
  %9 = getelementptr inbounds nuw i8, ptr %2, i64 16
  %10 = load ptr, ptr %9, align 8, !noalias !290
  %11 = getelementptr inbounds nuw i8, ptr %5, i64 552
  %.not.i.i.i = icmp eq ptr %10, %11
  %or.cond.i.i.i = select i1 %8, i1 %.not.i.i.i, i1 false
  br i1 %or.cond.i.i.i, label %12, label %_ZSt10__invoke_rINSt7__cxx1112basic_stringIcSt11char_traitsIcESaIcEEERZNK12_GLOBAL__N_113StreamChecker22constructSetEofNoteTagERN5clang4ento14CheckerContextEPKNS9_7SymExprEEUlRNS9_22PathSensitiveBugReportEE_JSG_EENSt9enable_ifIX16is_invocable_r_vIT_T0_DpT1_EESK_E4typeEOSL_DpOSM_.exit

12:                                               ; preds = %3
  %13 = load ptr, ptr %6, align 8, !noalias !290
  tail call void @_ZN5clang4ento22PathSensitiveBugReport18markNotInterestingEPKNS0_7SymExprE(ptr noundef nonnull align 8 dereferenceable(1016) %2, ptr noundef %13) #21, !noalias !290
  br label %_ZSt10__invoke_rINSt7__cxx1112basic_stringIcSt11char_traitsIcESaIcEEERZNK12_GLOBAL__N_113StreamChecker22constructSetEofNoteTagERN5clang4ento14CheckerContextEPKNS9_7SymExprEEUlRNS9_22PathSensitiveBugReportEE_JSG_EENSt9enable_ifIX16is_invocable_r_vIT_T0_DpT1_EESK_E4typeEOSL_DpOSM_.exit

_ZSt10__invoke_rINSt7__cxx1112basic_stringIcSt11char_traitsIcESaIcEEERZNK12_GLOBAL__N_113StreamChecker22constructSetEofNoteTagERN5clang4ento14CheckerContextEPKNS9_7SymExprEEUlRNS9_22PathSensitiveBugReportEE_JSG_EENSt9enable_ifIX16is_invocable_r_vIT_T0_DpT1_EESK_E4typeEOSL_DpOSM_.exit: ; preds = %3, %12
  %.0.i.i.i = phi ptr [ @.str.61, %12 ], [ @.str.5, %3 ]
  call void @_ZNSaIcEC1Ev(ptr noundef nonnull align 1 dereferenceable(1) %4) #21, !noalias !290
  %14 = call noundef ptr @_ZNSt7__cxx1112basic_stringIcSt11char_traitsIcESaIcEE13_M_local_dataEv(ptr noundef nonnull align 8 dereferenceable(32) %0) #21
  call void @_ZNSt7__cxx1112basic_stringIcSt11char_traitsIcESaIcEE12_Alloc_hiderC1EPcRKS3_(ptr noundef nonnull align 8 dereferenceable(32) %0, ptr noundef %14, ptr noundef nonnull align 1 dereferenceable(1) %4) #21
  %15 = call noundef i64 @strlen(ptr noundef nonnull dereferenceable(1) %.0.i.i.i) #21, !noalias !290
  %16 = getelementptr inbounds i8, ptr %.0.i.i.i, i64 %15
  call void @_ZNSt7__cxx1112basic_stringIcSt11char_traitsIcESaIcEE12_M_constructIPKcEEvT_S8_St20forward_iterator_tag(ptr noundef nonnull align 8 dereferenceable(32) %0, ptr noundef nonnull %.0.i.i.i, ptr noundef nonnull %16)
  call void @_ZNSaIcED1Ev(ptr noundef nonnull align 1 dereferenceable(1) %4) #21
  call void @llvm.lifetime.end.p0(i64 1, ptr nonnull %4)
  ret void
}